target datalayout = "e-m:e-p270:32:32-p271:32:32-p272:64:64-i64:64-i128:128-f80:128-n8:16:32:64-S128"
target triple = "x86_64-pc-linux-gnu"

%"class.llvm::SmallVector" = type { %"class.llvm::SmallVectorImpl", %"struct.llvm::SmallVectorStorage" }
%"class.llvm::SmallVectorImpl" = type { %"class.llvm::SmallVectorTemplateBase" }
%"class.llvm::SmallVectorTemplateBase" = type { %"class.llvm::SmallVectorTemplateCommon" }
%"class.llvm::SmallVectorTemplateCommon" = type { %"class.llvm::SmallVectorBase" }
%"class.llvm::SmallVectorBase" = type { ptr, i32, i32 }
%"struct.llvm::SmallVectorStorage" = type { [320 x i8] }
%"struct.llvm::sampleprof::SecHdrTableEntry" = type { i32, i64, i64, i64, i64 }
%"class.std::unique_ptr" = type { %"struct.std::__uniq_ptr_data" }
%"struct.std::__uniq_ptr_data" = type { %"class.std::__uniq_ptr_impl" }
%"class.std::__uniq_ptr_impl" = type { %"class.std::tuple" }
%"class.std::tuple" = type { %"struct.std::_Tuple_impl" }
%"struct.std::_Tuple_impl" = type { %"struct.std::_Head_base.6" }
%"struct.std::_Head_base.6" = type { ptr }
%"class.std::unique_ptr.7" = type { %"struct.std::__uniq_ptr_data.8" }
%"struct.std::__uniq_ptr_data.8" = type { %"class.std::__uniq_ptr_impl.9" }
%"class.std::__uniq_ptr_impl.9" = type { %"class.std::tuple.10" }
%"class.std::tuple.10" = type { %"struct.std::_Tuple_impl.11" }
%"struct.std::_Tuple_impl.11" = type { %"struct.std::_Head_base.14" }
%"struct.std::_Head_base.14" = type { ptr }
%"class.llvm::sampleprof::SampleProfileWriterExtBinaryBase" = type { %"class.llvm::sampleprof::SampleProfileWriterBinary", i32, %"class.llvm::SmallVector", i64, %"class.std::unique_ptr", i64, i64, %"class.std::vector.34", %"class.llvm::MapVector.39", i8, %"class.llvm::MapVector.48", ptr }
%"class.llvm::sampleprof::SampleProfileWriterBinary" = type { %"class.llvm::sampleprof::SampleProfileWriter.base", %"class.llvm::MapVector" }
%"class.llvm::sampleprof::SampleProfileWriter.base" = type <{ ptr, i64, %"class.std::unique_ptr", %"class.std::unique_ptr.7", i32 }>
%"class.llvm::MapVector" = type { %"class.llvm::DenseMap", %"class.llvm::SmallVector.29" }
%"class.llvm::DenseMap" = type <{ ptr, i32, i32, i32, [4 x i8] }>
%"class.llvm::SmallVector.29" = type { %"class.llvm::SmallVectorImpl.30" }
%"class.llvm::SmallVectorImpl.30" = type { %"class.llvm::SmallVectorTemplateBase.31" }
%"class.llvm::SmallVectorTemplateBase.31" = type { %"class.llvm::SmallVectorTemplateCommon.32" }
%"class.llvm::SmallVectorTemplateCommon.32" = type { %"class.llvm::SmallVectorBase" }
%"class.std::vector.34" = type { %"struct.std::_Vector_base.35" }
%"struct.std::_Vector_base.35" = type { %"struct.std::_Vector_base<llvm::sampleprof::SecHdrTableEntry, std::allocator<llvm::sampleprof::SecHdrTableEntry>>::_Vector_impl" }
%"struct.std::_Vector_base<llvm::sampleprof::SecHdrTableEntry, std::allocator<llvm::sampleprof::SecHdrTableEntry>>::_Vector_impl" = type { %"struct.std::_Vector_base<llvm::sampleprof::SecHdrTableEntry, std::allocator<llvm::sampleprof::SecHdrTableEntry>>::_Vector_impl_data" }
%"struct.std::_Vector_base<llvm::sampleprof::SecHdrTableEntry, std::allocator<llvm::sampleprof::SecHdrTableEntry>>::_Vector_impl_data" = type { ptr, ptr, ptr }
%"class.llvm::MapVector.39" = type { %"class.llvm::DenseMap.40", %"class.llvm::SmallVector.43" }
%"class.llvm::DenseMap.40" = type <{ ptr, i32, i32, i32, [4 x i8] }>
%"class.llvm::SmallVector.43" = type { %"class.llvm::SmallVectorImpl.44" }
%"class.llvm::SmallVectorImpl.44" = type { %"class.llvm::SmallVectorTemplateBase.45" }
%"class.llvm::SmallVectorTemplateBase.45" = type { %"class.llvm::SmallVectorTemplateCommon.46" }
%"class.llvm::SmallVectorTemplateCommon.46" = type { %"class.llvm::SmallVectorBase" }
%"class.llvm::MapVector.48" = type { %"class.llvm::DenseMap.40", %"class.llvm::SmallVector.49" }
%"class.llvm::SmallVector.49" = type { %"class.llvm::SmallVectorImpl.50" }
%"class.llvm::SmallVectorImpl.50" = type { %"class.llvm::SmallVectorTemplateBase.51" }
%"class.llvm::SmallVectorTemplateBase.51" = type { %"class.llvm::SmallVectorTemplateCommon.52" }
%"class.llvm::SmallVectorTemplateCommon.52" = type { %"class.llvm::SmallVectorBase" }
%"struct.std::is_same.297" = type { i8 }

; Function Attrs: mustprogress nounwind uwtable
define linkonce_odr hidden noundef zeroext i1 @_ZNKSt17integral_constantIbLb1EEcvbEv(ptr noundef nonnull align 1 dereferenceable(1) %0) #3 comdat align 2 {
  %2 = alloca ptr, align 8
  store ptr %0, ptr %2, align 8
  ret i1 true
}

; Function Attrs: mustprogress nounwind uwtable
define internal void @_ZN4llvm10sampleprofL13verifySecFlagINS0_14SecCommonFlagsEEEvNS0_7SecTypeET_(i32 noundef %0, i32 noundef %1) #3 {
  %3 = alloca i32, align 4
  %4 = alloca i32, align 4
  store i32 %0, ptr %3, align 4
  store i32 %1, ptr %4, align 4
  ret void
}

; Function Attrs: mustprogress nounwind uwtable
define internal void @_ZN4llvm10sampleprofL10addSecFlagINS0_14SecCommonFlagsEEEvRNS0_16SecHdrTableEntryET_(ptr noundef nonnull align 8 dereferenceable(40) %0, i32 noundef %1) #3 {
  %3 = alloca ptr, align 8
  %4 = alloca i32, align 4
  %5 = alloca i64, align 8
  %6 = alloca i8, align 1
  %7 = alloca %"struct.std::is_same.297", align 1
  store ptr %0, ptr %3, align 8
  store i32 %1, ptr %4, align 4
  %8 = load ptr, ptr %3, align 8
  %9 = getelementptr inbounds nuw %"struct.llvm::sampleprof::SecHdrTableEntry", ptr %8, i32 0, i32 0
  %10 = load i32, ptr %9, align 8
  %11 = load i32, ptr %4, align 4
  call void @_ZN4llvm10sampleprofL13verifySecFlagINS0_14SecCommonFlagsEEEvNS0_7SecTypeET_(i32 noundef %10, i32 noundef %11)
  %12 = load i32, ptr %4, align 4
  %13 = zext i32 %12 to i64
  store i64 %13, ptr %5, align 8
  %14 = call noundef zeroext i1 @_ZNKSt17integral_constantIbLb1EEcvbEv(ptr noundef nonnull align 1 dereferenceable(1) %7) #4
  %15 = zext i1 %14 to i8
  store i8 %15, ptr %6, align 1
  %16 = load i8, ptr %6, align 1
  %17 = trunc i8 %16 to i1
  br i1 %17, label %18, label %20

18:                                               ; preds = %2
  %19 = load i64, ptr %5, align 8
  br label %23

20:                                               ; preds = %2
  %21 = load i64, ptr %5, align 8
  %22 = shl i64 %21, 32
  br label %23

23:                                               ; preds = %20, %18
  %24 = phi i64 [ %19, %18 ], [ %22, %20 ]
  %25 = load ptr, ptr %3, align 8
  %26 = getelementptr inbounds nuw %"struct.llvm::sampleprof::SecHdrTableEntry", ptr %25, i32 0, i32 1
  %27 = load i64, ptr %26, align 8
  %28 = or i64 %27, %24
  store i64 %28, ptr %26, align 8
  ret void
}

; Function Attrs: mustprogress nounwind uwtable
define linkonce_odr hidden noundef ptr @_ZN4llvm25SmallVectorTemplateCommonINS_10sampleprof16SecHdrTableEntryEvE3endEv(ptr noundef nonnull align 8 dereferenceable(16) %0) #3 comdat align 2 {
  %2 = alloca ptr, align 8
  store ptr %0, ptr %2, align 8
  %3 = load ptr, ptr %2, align 8
  %4 = call noundef ptr @_ZN4llvm25SmallVectorTemplateCommonINS_10sampleprof16SecHdrTableEntryEvE5beginEv(ptr noundef nonnull align 8 dereferenceable(16) %3)
  %5 = call noundef i64 @_ZNK4llvm15SmallVectorBaseIjE4sizeEv(ptr noundef nonnull align 8 dereferenceable(16) %3)
  %6 = getelementptr inbounds %"struct.llvm::sampleprof::SecHdrTableEntry", ptr %4, i64 %5
  ret ptr %6
}

; Function Attrs: mustprogress nounwind uwtable
define linkonce_odr hidden noundef ptr @_ZN4llvm25SmallVectorTemplateCommonINS_10sampleprof16SecHdrTableEntryEvE5beginEv(ptr noundef nonnull align 8 dereferenceable(16) %0) #3 comdat align 2 {
  %2 = alloca ptr, align 8
  store ptr %0, ptr %2, align 8
  %3 = load ptr, ptr %2, align 8
  %4 = getelementptr inbounds nuw %"class.llvm::SmallVectorBase", ptr %3, i32 0, i32 0
  %5 = load ptr, ptr %4, align 8
  ret ptr %5
}

; Function Attrs: mustprogress nounwind uwtable
define dso_local void @_ZN4llvm10sampleprof32SampleProfileWriterExtBinaryBase24setToCompressAllSectionsEv(ptr noundef nonnull align 8 dereferenceable(576) %0) unnamed_addr #3 align 2 {
  %2 = alloca ptr, align 8
  %3 = alloca ptr, align 8
  %4 = alloca ptr, align 8
  %5 = alloca ptr, align 8
  %6 = alloca ptr, align 8
  store ptr %0, ptr %2, align 8
  %7 = load ptr, ptr %2, align 8
  %8 = getelementptr inbounds nuw %"class.llvm::sampleprof::SampleProfileWriterExtBinaryBase", ptr %7, i32 0, i32 2
  store ptr %8, ptr %3, align 8
  %9 = load ptr, ptr %3, align 8
  %10 = call noundef ptr @_ZN4llvm25SmallVectorTemplateCommonINS_10sampleprof16SecHdrTableEntryEvE5beginEv(ptr noundef nonnull align 8 dereferenceable(16) %9)
  store ptr %10, ptr %4, align 8
  %11 = load ptr, ptr %3, align 8
  %12 = call noundef ptr @_ZN4llvm25SmallVectorTemplateCommonINS_10sampleprof16SecHdrTableEntryEvE3endEv(ptr noundef nonnull align 8 dereferenceable(16) %11)
  store ptr %12, ptr %5, align 8
  br label %13

13:                                               ; preds = %20, %1
  %14 = load ptr, ptr %4, align 8
  %15 = load ptr, ptr %5, align 8
  %16 = icmp ne ptr %14, %15
  br i1 %16, label %17, label %23

17:                                               ; preds = %13
  %18 = load ptr, ptr %4, align 8
  store ptr %18, ptr %6, align 8
  %19 = load ptr, ptr %6, align 8
  call void @_ZN4llvm10sampleprofL10addSecFlagINS0_14SecCommonFlagsEEEvRNS0_16SecHdrTableEntryET_(ptr noundef nonnull align 8 dereferenceable(40) %19, i32 noundef 1)
  br label %20

20:                                               ; preds = %17
  %21 = load ptr, ptr %4, align 8
  %22 = getelementptr inbounds %"struct.llvm::sampleprof::SecHdrTableEntry", ptr %21, i32 1
  store ptr %22, ptr %4, align 8
  br label %13

23:                                               ; preds = %13
  ret void
}