; Function Attrs: mustprogress nounwind uwtable
define dso_local void @_ZN4llvm10sampleprof32SampleProfileWriterExtBinaryBase24setToCompressAllSectionsEv(ptr noundef nonnull align 8 dereferenceable(576) %0) unnamed_addr #2 align 2 {
  %2 = getelementptr inbounds nuw i8, ptr %0, i64 88
  %3 = load ptr, ptr %2, align 8
  %4 = tail call noundef i64 @_ZNK4llvm15SmallVectorBaseIjE4sizeEv(ptr noundef nonnull align 8 dereferenceable(16) %2) #22
  %5 = getelementptr inbounds %"struct.llvm::sampleprof::SecHdrTableEntry", ptr %3, i64 %4
  %.not8 = icmp eq i64 %4, 0
  br i1 %.not8, label %._crit_edge, label %.lr.ph

.lr.ph:                                           ; preds = %1, %.lr.ph
  %.09 = phi ptr [ %9, %.lr.ph ], [ %3, %1 ]
  %6 = getelementptr inbounds nuw i8, ptr %.09, i64 8
  %7 = load i64, ptr %6, align 8
  %8 = or i64 %7, 1
  store i64 %8, ptr %6, align 8
  %9 = getelementptr inbounds i8, ptr %.09, i64 40
  %.not = icmp eq ptr %9, %5
  br i1 %.not, label %._crit_edge, label %.lr.ph

._crit_edge:                                      ; preds = %.lr.ph, %1
  ret void
}